target datalayout = "e-m:e-p270:32:32-p271:32:32-p272:64:64-i64:64-i128:128-f80:128-n8:16:32:64-S128"
target triple = "x86_64-pc-linux-gnu"

%"struct.duckdb_re2::PatchList" = type { i32, i32 }
%"class.duckdb_re2::Compiler" = type <{ %"class.duckdb_re2::Regexp::Walker", ptr, i8, [3 x i8], i32, i8, [7 x i8], %"class.duckdb_re2::PODArray", i32, i32, i64, %"class.std::unordered_map", %"struct.duckdb_re2::Frag", i32, [4 x i8] }>
%"class.duckdb_re2::Regexp::Walker" = type { ptr, %"class.std::stack", i8, i32 }
%"class.std::stack" = type { %"class.std::deque" }
%"class.std::deque" = type { %"class.std::_Deque_base" }
%"class.std::_Deque_base" = type { %"struct.std::_Deque_base<duckdb_re2::WalkState<duckdb_re2::Frag>, std::allocator<duckdb_re2::WalkState<duckdb_re2::Frag>>>::_Deque_impl" }
%"struct.std::_Deque_base<duckdb_re2::WalkState<duckdb_re2::Frag>, std::allocator<duckdb_re2::WalkState<duckdb_re2::Frag>>>::_Deque_impl" = type { %"struct.std::_Deque_base<duckdb_re2::WalkState<duckdb_re2::Frag>, std::allocator<duckdb_re2::WalkState<duckdb_re2::Frag>>>::_Deque_impl_data" }
%"struct.std::_Deque_base<duckdb_re2::WalkState<duckdb_re2::Frag>, std::allocator<duckdb_re2::WalkState<duckdb_re2::Frag>>>::_Deque_impl_data" = type { ptr, i64, %"struct.std::_Deque_iterator", %"struct.std::_Deque_iterator" }
%"struct.std::_Deque_iterator" = type { ptr, ptr, ptr, ptr }
%"class.duckdb_re2::PODArray" = type { %"class.std::unique_ptr" }
%"class.std::unique_ptr" = type { %"struct.std::__uniq_ptr_data" }
%"struct.std::__uniq_ptr_data" = type { %"class.std::__uniq_ptr_impl" }
%"class.std::__uniq_ptr_impl" = type { %"class.std::tuple" }
%"class.std::tuple" = type { %"struct.std::_Tuple_impl" }
%"struct.std::_Tuple_impl" = type { %"struct.std::_Tuple_impl.0", %"struct.std::_Head_base.1" }
%"struct.std::_Tuple_impl.0" = type { %"struct.std::_Head_base" }
%"struct.std::_Head_base" = type { %"struct.duckdb_re2::PODArray<duckdb_re2::Prog::Inst>::Deleter" }
%"struct.duckdb_re2::PODArray<duckdb_re2::Prog::Inst>::Deleter" = type { i32 }
%"struct.std::_Head_base.1" = type { ptr }
%"class.std::unordered_map" = type { %"class.std::_Hashtable" }
%"class.std::_Hashtable" = type { ptr, i64, %"struct.std::__detail::_Hash_node_base", i64, %"struct.std::__detail::_Prime_rehash_policy", ptr }
%"struct.std::__detail::_Hash_node_base" = type { ptr }
%"struct.std::__detail::_Prime_rehash_policy" = type { float, i64 }
%"struct.duckdb_re2::Frag" = type <{ i32, %"struct.duckdb_re2::PatchList", i8, [3 x i8] }>

@_ZN10duckdb_re2L14kNullPatchListE = internal constant %"struct.duckdb_re2::PatchList" zeroinitializer, align 4

; Function Attrs: mustprogress nounwind uwtable
define linkonce_odr hidden void @_ZN10duckdb_re24FragC2Ev(ptr noundef nonnull align 4 dereferenceable(13) %0) unnamed_addr #1 comdat align 2 {
  %2 = alloca ptr, align 8
  store ptr %0, ptr %2, align 8, !tbaa !61
  %3 = load ptr, ptr %2, align 8
  %4 = getelementptr inbounds nuw %"struct.duckdb_re2::Frag", ptr %3, i32 0, i32 0
  store i32 0, ptr %4, align 4, !tbaa !63
  %5 = getelementptr inbounds nuw %"struct.duckdb_re2::Frag", ptr %3, i32 0, i32 1
  call void @llvm.memcpy.p0.p0.i64(ptr align 4 %5, ptr align 4 @_ZN10duckdb_re2L14kNullPatchListE, i64 8, i1 false), !tbaa.struct !64
  %6 = getelementptr inbounds nuw %"struct.duckdb_re2::Frag", ptr %3, i32 0, i32 2
  store i8 0, ptr %6, align 4, !tbaa !65
  ret void
}

; Function Attrs: mustprogress uwtable
define hidden { i64, i64 } @_ZN10duckdb_re28Compiler7NoMatchEv(ptr noundef nonnull align 8 dereferenceable(228) %0) #0 align 2 {
  %2 = alloca %"struct.duckdb_re2::Frag", align 4
  %3 = alloca ptr, align 8
  store ptr %0, ptr %3, align 8, !tbaa !3
  call void @_ZN10duckdb_re24FragC2Ev(ptr noundef nonnull align 4 dereferenceable(13) %2)
  %4 = load { i64, i64 }, ptr %2, align 4
  ret { i64, i64 } %4
}

; Function Attrs: mustprogress uwtable
define hidden { i64, i64 } @_ZN10duckdb_re28Compiler10ShortVisitEPNS_6RegexpENS_4FragE(ptr noundef nonnull align 8 dereferenceable(228) %0, ptr noundef %1, i64 %2, i64 %3) unnamed_addr #0 align 2 {
  %5 = alloca %"struct.duckdb_re2::Frag", align 4
  %6 = alloca %"struct.duckdb_re2::Frag", align 4
  %7 = alloca ptr, align 8
  %8 = alloca ptr, align 8
  %9 = alloca { i64, i64 }, align 8
  %10 = getelementptr inbounds nuw { i64, i64 }, ptr %6, i32 0, i32 0
  store i64 %2, ptr %10, align 4
  %11 = getelementptr inbounds nuw { i64, i64 }, ptr %6, i32 0, i32 1
  store i64 %3, ptr %11, align 4
  store ptr %0, ptr %7, align 8, !tbaa !3
  store ptr %1, ptr %8, align 8, !tbaa !120
  %12 = load ptr, ptr %7, align 8
  %13 = getelementptr inbounds nuw %"class.duckdb_re2::Compiler", ptr %12, i32 0, i32 2
  store i8 1, ptr %13, align 8, !tbaa !47
  %14 = call { i64, i64 } @_ZN10duckdb_re28Compiler7NoMatchEv(ptr noundef nonnull align 8 dereferenceable(228) %12)
  store { i64, i64 } %14, ptr %9, align 8
  call void @llvm.memcpy.p0.p0.i64(ptr align 4 %5, ptr align 8 %9, i64 13, i1 false)
  %15 = load { i64, i64 }, ptr %5, align 4
  ret { i64, i64 } %15
}