; Function Attrs: mustprogress nofree norecurse nosync nounwind willreturn memory(argmem: write) uwtable
define hidden { i64, i64 } @_ZN10duckdb_re28Compiler10ShortVisitEPNS_6RegexpENS_4FragE(ptr noundef nonnull writeonly align 8 captures(none) dereferenceable(228) initializes((104, 105)) %0, ptr readnone captures(none) %1, i64 %2, i64 %3) unnamed_addr #14 align 2 {
  %5 = alloca %"struct.duckdb_re2::Frag", align 8
  %6 = getelementptr inbounds nuw i8, ptr %0, i64 104
  store i8 1, ptr %6, align 8, !tbaa !49
  call void @llvm.lifetime.start.p0(i64 16, ptr nonnull %5)
  store i32 0, ptr %5, align 8, !tbaa !71
  %.4..4..4..4..4..sroa_idx = getelementptr inbounds nuw i8, ptr %5, i64 4
  store i64 0, ptr %.4..4..4..4..4..sroa_idx, align 4
  %.12..12..12..12..12..sroa_idx = getelementptr inbounds nuw i8, ptr %5, i64 12
  store i8 0, ptr %.12..12..12..12..12..sroa_idx, align 4, !tbaa !72
  %.0..0..0..0..0..fca.0.load.i = load i64, ptr %5, align 8
  %.fca.0.insert.i = insertvalue { i64, i64 } poison, i64 %.0..0..0..0..0..fca.0.load.i, 0
  %.8..8..8..8..8..fca.1.gep.sroa_idx = getelementptr inbounds nuw i8, ptr %5, i64 8
  %.8..8..8..8..8..fca.1.load.i = load i64, ptr %.8..8..8..8..8..fca.1.gep.sroa_idx, align 8
  call void @llvm.lifetime.end.p0(i64 16, ptr nonnull %5)
  %.sroa.23.8.insert.ext = and i64 %.8..8..8..8..8..fca.1.load.i, 1099511627775
  %.fca.1.insert = insertvalue { i64, i64 } %.fca.0.insert.i, i64 %.sroa.23.8.insert.ext, 1
  ret { i64, i64 } %.fca.1.insert
}